(dp0
V661
p1
VX:/4E10/Lot 2 data/group 5/661_5C_V.CSV
p2
sV660
p3
VX:/4E10/Lot 2 data/group 5/660_5C_V.CSV
p4
sV542
p5
VX:/4E10/Lot 2 data/group 5/542_1C_V.CSV
p6
sV540
p7
VX:/4E10/Lot 2 data/group 5/540_1C_V.CSV
p8
sV544
p9
VX:/4E10/Lot 2 data/group 5/544_1C_V.CSV
p10
sV549
p11
VX:/4E10/Lot 2 data/group 5/549_1C_V.CSV
p12
sV571
p13
VX:/4E10/Lot 2 data/group 5/571_4C_V.CSV
p14
sV570
p15
VX:/4E10/Lot 2 data/group 5/570_4C_V.CSV
p16
sV537
p17
VX:/4E10/Lot 2 data/group 4/537C_V.CSV
p18
sV536
p19
VX:/4E10/Lot 2 data/group 4/536C_V.CSV
p20
sV535
p21
VX:/4E10/Lot 2 data/group 4/535C_V.CSV
p22
sV534
p23
VX:/4E10/Lot 2 data/group 4/534C_V.CSV
p24
sV533
p25
VX:/4E10/Lot 2 data/group 4/533C_V.CSV
p26
sV532
p27
VX:/4E10/Lot 2 data/group 4/532C_V.CSV
p28
sV530
p29
VX:/4E10/Lot 2 data/group 4/530C_V.CSV
p30
sV926
p31
VX:/4E10/Lot 2 data/group 1/926C_V.CSV
p32
sV538
p33
VX:/4E10/Lot 2 data/group 5/538_1C_V.CSV
p34
sV591
p35
VX:/4E10/Lot 2 data/group 2/591C_V.CSV
p36
sV593
p37
VX:/4E10/Lot 2 data/group 2/593C_V.CSV
p38
sV595
p39
VX:/4E10/Lot 2 data/group 2/595C_V.CSV
p40
sV594
p41
VX:/4E10/Lot 2 data/group 2/594C_V.CSV
p42
sV597
p43
VX:/4E10/Lot 2 data/group 2/597C_V.CSV
p44
sV599
p45
VX:/4E10/Lot 2 data/group 2/599C_V.CSV
p46
sV598
p47
VX:/4E10/Lot 2 data/group 2/598C_V.CSV
p48
sV525
p49
VX:/4E10/Lot 2 data/group 4/525C_V.CSV
p50
sV526
p51
VX:/4E10/Lot 2 data/group 4/526C_V.CSV
p52
sV527
p53
VX:/4E10/Lot 2 data/group 4/527C_V.CSV
p54
sV520
p55
VX:/4E10/Lot 2 data/group 4/520C_V.CSV
p56
sV521
p57
VX:/4E10/Lot 2 data/group 4/521C_V.CSV
p58
sV522
p59
VX:/4E10/Lot 2 data/group 4/522C_V.CSV
p60
sV523
p61
VX:/4E10/Lot 2 data/group 4/523C_V.CSV
p62
sV529
p63
VX:/4E10/Lot 2 data/group 4/529C_V.CSV
p64
sV586
p65
VX:/4E10/Lot 2 data/group 2/586C_V.CSV
p66
sV587
p67
VX:/4E10/Lot 2 data/group 2/587C_V.CSV
p68
sV584
p69
VX:/4E10/Lot 2 data/group 3/584C_V.CSV
p70
sV585
p71
VX:/4E10/Lot 2 data/group 3/585C_V.CSV
p72
sV582
p73
VX:/4E10/Lot 2 data/group 3/582C_V.CSV
p74
sV581
p75
VX:/4E10/Lot 2 data/group 3/581C_V.CSV
p76
sV588
p77
VX:/4E10/Lot 2 data/group 2/588C_V.CSV
p78
sV589
p79
VX:/4E10/Lot 2 data/group 2/589C_V.CSV
p80
sV641
p81
VX:/4E10/Lot 2 data/group 1/641C_V.CSV
p82
sV518
p83
VX:/4E10/Lot 2 data/group 4/518C_V.CSV
p84
sV642
p85
VX:/4E10/Lot 2 data/group 1/642C_V.CSV
p86
sV539
p87
VX:/4E10/Lot 2 data/group 5/539_1C_V.CSV
p88
sV647
p89
VX:/4E10/Lot 2 data/group 1/647C_V.CSV
p90
sV511
p91
VX:/4E10/Lot 2 data/group 4/511C_V.CSV
p92
sV513
p93
VX:/4E10/Lot 2 data/group 4/513C_V.CSV
p94
sV515
p95
VX:/4E10/Lot 2 data/group 4/515C_V.CSV
p96
sV517
p97
VX:/4E10/Lot 2 data/group 4/517C_V.CSV
p98
sV516
p99
VX:/4E10/Lot 2 data/group 4/516C_V.CSV
p100
sV622
p101
VX:/4E10/Lot 2 data/group 3/622C_V.CSV
p102
sV621
p103
VX:/4E10/Lot 2 data/group 3/621C_V.CSV
p104
sV627
p105
VX:/4E10/Lot 2 data/group 3/627C_V.CSV
p106
sV625
p107
VX:/4E10/Lot 2 data/group 3/625C_V.CSV
p108
sV624
p109
VX:/4E10/Lot 2 data/group 3/624C_V.CSV
p110
sV573
p111
VX:/4E10/Lot 2 data/group 5/573_4C_V.CSV
p112
sV629
p113
VX:/4E10/Lot 2 data/group 3/629C_V.CSV
p114
sV628
p115
VX:/4E10/Lot 2 data/group 3/628C_V.CSV
p116
sV559
p117
VX:/4E10/Lot 2 data/group 5/559_3C_V.CSV
p118
sV656
p119
VX:/4E10/Lot 2 data/group 5/656_5C_V.CSV
p120
sV657
p121
VX:/4E10/Lot 2 data/group 5/657_5C_V.CSV
p122
sV655
p123
VX:/4E10/Lot 2 data/group 5/655_4C_V.CSV
p124
sV653
p125
VX:/4E10/Lot 2 data/group 1/653C_V.CSV
p126
sV508
p127
VX:/4E10/Lot 2 data/group 4/508C_V.CSV
p128
sV651
p129
VX:/4E10/Lot 2 data/group 1/651C_V.CSV
p130
sV506
p131
VX:/4E10/Lot 2 data/group 4/506C_V.CSV
p132
sV507
p133
VX:/4E10/Lot 2 data/group 4/507C_V.CSV
p134
sV504
p135
VX:/4E10/Lot 2 data/group 4/504C_V.CSV
p136
sV505
p137
VX:/4E10/Lot 2 data/group 4/505C_V.CSV
p138
sV502
p139
VX:/4E10/Lot 2 data/group 4/502C_V.CSV
p140
sV503
p141
VX:/4E10/Lot 2 data/group 4/503C_V.CSV
p142
sV561
p143
VX:/4E10/Lot 2 data/group 5/561_3C_V.CSV
p144
sV501
p145
VX:/4E10/Lot 2 data/group 4/501C_V.CSV
p146
sV568
p147
VX:/4E10/Lot 2 data/group 5/568_4C_V.CSV
p148
sV631
p149
VX:/4E10/Lot 2 data/group 3/631C_V.CSV
p150
sV632
p151
VX:/4E10/Lot 2 data/group 3/632C_V.CSV
p152
sV634
p153
VX:/4E10/Lot 2 data/group 3/634C_V.CSV
p154
sV650
p155
VX:/4E10/Lot 2 data/group 1/650C_V.CSV
p156
sV637
p157
VX:/4E10/Lot 2 data/group 3/637C_V.CSV
p158
sV638
p159
VX:/4E10/Lot 2 data/group 1/638C_V.CSV
p160
sV551
p161
VX:/4E10/Lot 2 data/group 5/551_2C_V.CSV
p162
sV562
p163
VX:/4E10/Lot 2 data/group 5/562_3C_V.CSV
p164
sV509
p165
VX:/4E10/Lot 2 data/group 4/509C_V.CSV
p166
sV564
p167
VX:/4E10/Lot 2 data/group 5/564_3C_V.CSV
p168
sV608
p169
VX:/4E10/Lot 2 data/group 2/608C_V.CSV
p170
sV658
p171
VX:/4E10/Lot 2 data/group 5/658_5C_V.CSV
p172
sV659
p173
VX:/4E10/Lot 2 data/group 5/659_5C_V.CSV
p174
sV604
p175
VX:/4E10/Lot 2 data/group 2/604C_V.CSV
p176
sV607
p177
VX:/4E10/Lot 2 data/group 2/607C_V.CSV
p178
sV601
p179
VX:/4E10/Lot 2 data/group 2/601C_V.CSV
p180
sV558
p181
VX:/4E10/Lot 2 data/group 5/558_3C_V.CSV
p182
sV603
p183
VX:/4E10/Lot 2 data/group 2/603C_V.CSV
p184
sV602
p185
VX:/4E10/Lot 2 data/group 2/602C_V.CSV
p186
sV555
p187
VX:/4E10/Lot 2 data/group 5/555_2C_V.CSV
p188
sV557
p189
VX:/4E10/Lot 2 data/group 5/557_2C_V.CSV
p190
sV556
p191
VX:/4E10/Lot 2 data/group 5/556_2C_V.CSV
p192
sV609
p193
VX:/4E10/Lot 2 data/group 2/609C_V.CSV
p194
sV550
p195
VX:/4E10/Lot 2 data/group 5/550_2C_V.CSV
p196
sV553
p197
VX:/4E10/Lot 2 data/group 5/553_2C_V.CSV
p198
sV635
p199
VX:/4E10/Lot 2 data/group 3/635C_V.CSV
p200
sV640
p201
VX:/4E10/Lot 2 data/group 1/640C_V.CSV
p202
sV560
p203
VX:/4E10/Lot 2 data/group 5/560_3C_V.CSV
p204
sV639
p205
VX:/4E10/Lot 2 data/group 1/639C_V.CSV
p206
sV618
p207
VX:/4E10/Lot 2 data/group 3/618C_V.CSV
p208
sV612
p209
VX:/4E10/Lot 2 data/group 2/612C_V.CSV
p210
sV613
p211
VX:/4E10/Lot 2 data/group 3/613C_V.CSV
p212
sV611
p213
VX:/4E10/Lot 2 data/group 2/611C_V.CSV
p214
sV617
p215
VX:/4E10/Lot 2 data/group 3/617C_V.CSV
p216
sV615
p217
VX:/4E10/Lot 2 data/group 3/615C_V.CSV
p218
sV567
p219
VX:/4E10/Lot 2 data/group 5/567_4C_V.CSV
p220
s.