(dp0
V761
p1
VX:/4E10/Lot 2 data//761_1C_V.CSV
p2
sV661
p3
VX:/4E10/Lot 2 data/group 5/661_5C_V.CSV
p4
sV660
p5
VX:/4E10/Lot 2 data/group 5/660_5C_V.CSV
p6
sV542
p7
VX:/4E10/Lot 2 data/group 5/542_1C_V.CSV
p8
sV540
p9
VX:/4E10/Lot 2 data/group 5/540_1C_V.CSV
p10
sV544
p11
VX:/4E10/Lot 2 data/group 5/544_1C_V.CSV
p12
sV549
p13
VX:/4E10/Lot 2 data/group 5/549_1C_V.CSV
p14
sV571
p15
VX:/4E10/Lot 2 data/group 5/571_4C_V.CSV
p16
sV570
p17
VX:/4E10/Lot 2 data/group 5/570_4C_V.CSV
p18
sV537
p19
VX:/4E10/Lot 2 data/group 4/537C_V.CSV
p20
sV536
p21
VX:/4E10/Lot 2 data/group 4/536C_V.CSV
p22
sV535
p23
VX:/4E10/Lot 2 data/group 4/535C_V.CSV
p24
sV534
p25
VX:/4E10/Lot 2 data/group 4/534C_V.CSV
p26
sV533
p27
VX:/4E10/Lot 2 data/group 4/533C_V.CSV
p28
sV532
p29
VX:/4E10/Lot 2 data/group 4/532C_V.CSV
p30
sV530
p31
VX:/4E10/Lot 2 data/group 4/530C_V.CSV
p32
sV926
p33
VX:/4E10/Lot 2 data/group 1/926C_V.CSV
p34
sV538
p35
VX:/4E10/Lot 2 data/group 5/538_1C_V.CSV
p36
sV591
p37
VX:/4E10/Lot 2 data/group 2/591C_V.CSV
p38
sV593
p39
VX:/4E10/Lot 2 data/group 2/593C_V.CSV
p40
sV595
p41
VX:/4E10/Lot 2 data/group 2/595C_V.CSV
p42
sV594
p43
VX:/4E10/Lot 2 data/group 2/594C_V.CSV
p44
sV597
p45
VX:/4E10/Lot 2 data/group 2/597C_V.CSV
p46
sV599
p47
VX:/4E10/Lot 2 data/group 2/599C_V.CSV
p48
sV598
p49
VX:/4E10/Lot 2 data/group 2/598C_V.CSV
p50
sV525
p51
VX:/4E10/Lot 2 data/group 4/525C_V.CSV
p52
sV526
p53
VX:/4E10/Lot 2 data/group 4/526C_V.CSV
p54
sV527
p55
VX:/4E10/Lot 2 data/group 4/527C_V.CSV
p56
sV520
p57
VX:/4E10/Lot 2 data/group 4/520C_V.CSV
p58
sV521
p59
VX:/4E10/Lot 2 data/group 4/521C_V.CSV
p60
sV522
p61
VX:/4E10/Lot 2 data/group 4/522C_V.CSV
p62
sV523
p63
VX:/4E10/Lot 2 data/group 4/523C_V.CSV
p64
sV529
p65
VX:/4E10/Lot 2 data/group 4/529C_V.CSV
p66
sV586
p67
VX:/4E10/Lot 2 data/group 2/586C_V.CSV
p68
sV587
p69
VX:/4E10/Lot 2 data/group 2/587C_V.CSV
p70
sV584
p71
VX:/4E10/Lot 2 data/group 3/584C_V.CSV
p72
sV585
p73
VX:/4E10/Lot 2 data/group 3/585C_V.CSV
p74
sV582
p75
VX:/4E10/Lot 2 data/group 3/582C_V.CSV
p76
sV581
p77
VX:/4E10/Lot 2 data/group 3/581C_V.CSV
p78
sV588
p79
VX:/4E10/Lot 2 data/group 2/588C_V.CSV
p80
sV589
p81
VX:/4E10/Lot 2 data/group 2/589C_V.CSV
p82
sV641
p83
VX:/4E10/Lot 2 data/group 1/641C_V.CSV
p84
sV518
p85
VX:/4E10/Lot 2 data/group 4/518C_V.CSV
p86
sV642
p87
VX:/4E10/Lot 2 data/group 1/642C_V.CSV
p88
sV539
p89
VX:/4E10/Lot 2 data/group 5/539_1C_V.CSV
p90
sV647
p91
VX:/4E10/Lot 2 data/group 1/647C_V.CSV
p92
sV511
p93
VX:/4E10/Lot 2 data/group 4/511C_V.CSV
p94
sV510
p95
VX:/4E10/Lot 2 data//510_1C_V.CSV
p96
sV513
p97
VX:/4E10/Lot 2 data/group 4/513C_V.CSV
p98
sV515
p99
VX:/4E10/Lot 2 data/group 4/515C_V.CSV
p100
sV517
p101
VX:/4E10/Lot 2 data/group 4/517C_V.CSV
p102
sV516
p103
VX:/4E10/Lot 2 data/group 4/516C_V.CSV
p104
sV622
p105
VX:/4E10/Lot 2 data/group 3/622C_V.CSV
p106
sV621
p107
VX:/4E10/Lot 2 data/group 3/621C_V.CSV
p108
sV627
p109
VX:/4E10/Lot 2 data/group 3/627C_V.CSV
p110
sV625
p111
VX:/4E10/Lot 2 data/group 3/625C_V.CSV
p112
sV624
p113
VX:/4E10/Lot 2 data/group 3/624C_V.CSV
p114
sV573
p115
VX:/4E10/Lot 2 data/group 5/573_4C_V.CSV
p116
sV629
p117
VX:/4E10/Lot 2 data/group 3/629C_V.CSV
p118
sV628
p119
VX:/4E10/Lot 2 data/group 3/628C_V.CSV
p120
sV559
p121
VX:/4E10/Lot 2 data/group 5/559_3C_V.CSV
p122
sV656
p123
VX:/4E10/Lot 2 data/group 5/656_5C_V.CSV
p124
sV657
p125
VX:/4E10/Lot 2 data/group 5/657_5C_V.CSV
p126
sV655
p127
VX:/4E10/Lot 2 data/group 5/655_4C_V.CSV
p128
sV653
p129
VX:/4E10/Lot 2 data/group 1/653C_V.CSV
p130
sV508
p131
VX:/4E10/Lot 2 data/group 4/508C_V.CSV
p132
sV651
p133
VX:/4E10/Lot 2 data/group 1/651C_V.CSV
p134
sV506
p135
VX:/4E10/Lot 2 data/group 4/506C_V.CSV
p136
sV507
p137
VX:/4E10/Lot 2 data/group 4/507C_V.CSV
p138
sV504
p139
VX:/4E10/Lot 2 data/group 4/504C_V.CSV
p140
sV505
p141
VX:/4E10/Lot 2 data/group 4/505C_V.CSV
p142
sV502
p143
VX:/4E10/Lot 2 data/group 4/502C_V.CSV
p144
sV503
p145
VX:/4E10/Lot 2 data/group 4/503C_V.CSV
p146
sV658
p147
VX:/4E10/Lot 2 data/group 5/658_5C_V.CSV
p148
sV501
p149
VX:/4E10/Lot 2 data/group 4/501C_V.CSV
p150
sV568
p151
VX:/4E10/Lot 2 data/group 5/568_4C_V.CSV
p152
sV631
p153
VX:/4E10/Lot 2 data/group 3/631C_V.CSV
p154
sV632
p155
VX:/4E10/Lot 2 data/group 3/632C_V.CSV
p156
sV634
p157
VX:/4E10/Lot 2 data/group 3/634C_V.CSV
p158
sV650
p159
VX:/4E10/Lot 2 data/group 1/650C_V.CSV
p160
sV637
p161
VX:/4E10/Lot 2 data/group 3/637C_V.CSV
p162
sV638
p163
VX:/4E10/Lot 2 data/group 1/638C_V.CSV
p164
sV639
p165
VX:/4E10/Lot 2 data/group 1/639C_V.CSV
p166
sV562
p167
VX:/4E10/Lot 2 data/group 5/562_3C_V.CSV
p168
sV509
p169
VX:/4E10/Lot 2 data/group 4/509C_V.CSV
p170
sV564
p171
VX:/4E10/Lot 2 data/group 5/564_3C_V.CSV
p172
sV550
p173
VX:/4E10/Lot 2 data/group 5/550_2C_V.CSV
p174
sV551
p175
VX:/4E10/Lot 2 data/group 5/551_2C_V.CSV
p176
sV659
p177
VX:/4E10/Lot 2 data/group 5/659_5C_V.CSV
p178
sV604
p179
VX:/4E10/Lot 2 data/group 2/604C_V.CSV
p180
sV607
p181
VX:/4E10/Lot 2 data/group 2/607C_V.CSV
p182
sV601
p183
VX:/4E10/Lot 2 data/group 2/601C_V.CSV
p184
sV558
p185
VX:/4E10/Lot 2 data/group 5/558_3C_V.CSV
p186
sV603
p187
VX:/4E10/Lot 2 data/group 2/603C_V.CSV
p188
sV602
p189
VX:/4E10/Lot 2 data/group 2/602C_V.CSV
p190
sV555
p191
VX:/4E10/Lot 2 data/group 5/555_2C_V.CSV
p192
sV557
p193
VX:/4E10/Lot 2 data/group 5/557_2C_V.CSV
p194
sV556
p195
VX:/4E10/Lot 2 data/group 5/556_2C_V.CSV
p196
sV609
p197
VX:/4E10/Lot 2 data/group 2/609C_V.CSV
p198
sV608
p199
VX:/4E10/Lot 2 data/group 2/608C_V.CSV
p200
sV553
p201
VX:/4E10/Lot 2 data/group 5/553_2C_V.CSV
p202
sV635
p203
VX:/4E10/Lot 2 data/group 3/635C_V.CSV
p204
sV640
p205
VX:/4E10/Lot 2 data/group 1/640C_V.CSV
p206
sV560
p207
VX:/4E10/Lot 2 data/group 5/560_3C_V.CSV
p208
sV561
p209
VX:/4E10/Lot 2 data/group 5/561_3C_V.CSV
p210
sV618
p211
VX:/4E10/Lot 2 data/group 3/618C_V.CSV
p212
sV612
p213
VX:/4E10/Lot 2 data/group 2/612C_V.CSV
p214
sV613
p215
VX:/4E10/Lot 2 data/group 3/613C_V.CSV
p216
sV611
p217
VX:/4E10/Lot 2 data/group 2/611C_V.CSV
p218
sV617
p219
VX:/4E10/Lot 2 data/group 3/617C_V.CSV
p220
sV615
p221
VX:/4E10/Lot 2 data/group 3/615C_V.CSV
p222
sV567
p223
VX:/4E10/Lot 2 data/group 5/567_4C_V.CSV
p224
s.