(dp0
V668
p1
VC:/temp/4E10 data/Lot 2 data/group 0/668C_V.CSV
p2
sV667
p3
VC:/temp/4E10 data/Lot 2 data/group 0/667C_V.CSV
p4
sV666
p5
VC:/temp/4E10 data/Lot 2 data/group 0/666C_V.CSV
p6
sV760
p7
VC:/temp/4E10 data/Lot 2 data/group 0/760C_V.CSV
p8
sV761
p9
VC:/temp/4E10 data/Lot 2 data/group 0/761C_V.CSV
p10
sV767
p11
VC:/temp/4E10 data/Lot 2 data/group 0/767C_V.CSV
p12
sV661
p13
VC:/temp/4E10 data/Lot 2 data/group 5/661_5C_V.CSV
p14
sV660
p15
VC:/temp/4E10 data/Lot 2 data/group 5/660_5C_V.CSV
p16
sV571
p17
VC:/temp/4E10 data/Lot 2 data/group 5/571_4C_V.CSV
p18
sV542
p19
VC:/temp/4E10 data/Lot 2 data/group 5/542_1C_V.CSV
p20
sV543
p21
VC:/temp/4E10 data/Lot 2 data/group 0/543C_V.CSV
p22
sV540
p23
VC:/temp/4E10 data/Lot 2 data/group 5/540_1C_V.CSV
p24
sV541
p25
VC:/temp/4E10 data/Lot 2 data/group 0/541C_V.CSV
p26
sV547
p27
VC:/temp/4E10 data/Lot 2 data/group 0/547C_V.CSV
p28
sV544
p29
VC:/temp/4E10 data/Lot 2 data/group 5/544_1C_V.CSV
p30
sV545
p31
VC:/temp/4E10 data/Lot 2 data/group 0/545C_V.CSV
p32
sV570
p33
VC:/temp/4E10 data/Lot 2 data/group 5/570_4C_V.CSV
p34
sV548
p35
VC:/temp/4E10 data/Lot 2 data/group 0/548C_V.CSV
p36
sV549
p37
VC:/temp/4E10 data/Lot 2 data/group 5/549_1C_V.CSV
p38
sV815
p39
VC:/temp/4E10 data/Lot 2 data/group 0/815C_V.CSV
p40
sV816
p41
VC:/temp/4E10 data/Lot 2 data/group 0/816C_V.CSV
p42
sV664
p43
VC:/temp/4E10 data/Lot 2 data/group 0/664C_V.CSV
p44
sV678
p45
VC:/temp/4E10 data/Lot 2 data/group 0/678C_V.CSV
p46
sV675
p47
VC:/temp/4E10 data/Lot 2 data/group 0/675C_V.CSV
p48
sV670
p49
VC:/temp/4E10 data/Lot 2 data/group 0/670C_V.CSV
p50
sV537
p51
VC:/temp/4E10 data/Lot 2 data/group 4/537C_V.CSV
p52
sV536
p53
VC:/temp/4E10 data/Lot 2 data/group 4/536C_V.CSV
p54
sV535
p55
VC:/temp/4E10 data/Lot 2 data/group 4/535C_V.CSV
p56
sV534
p57
VC:/temp/4E10 data/Lot 2 data/group 4/534C_V.CSV
p58
sV829
p59
VC:/temp/4E10 data/Lot 2 data/group 0/829C_V.CSV
p60
sV532
p61
VC:/temp/4E10 data/Lot 2 data/group 4/532C_V.CSV
p62
sV530
p63
VC:/temp/4E10 data/Lot 2 data/group 4/530C_V.CSV
p64
sV824
p65
VC:/temp/4E10 data/Lot 2 data/group 0/824C_V.CSV
p66
sV926
p67
VC:/temp/4E10 data/Lot 2 data/group 1/926C_V.CSV
p68
sV538
p69
VC:/temp/4E10 data/Lot 2 data/group 5/538_1C_V.CSV
p70
sV591
p71
VC:/temp/4E10 data/Lot 2 data/group 2/591C_V.CSV
p72
sV593
p73
VC:/temp/4E10 data/Lot 2 data/group 2/593C_V.CSV
p74
sV595
p75
VC:/temp/4E10 data/Lot 2 data/group 2/595C_V.CSV
p76
sV594
p77
VC:/temp/4E10 data/Lot 2 data/group 2/594C_V.CSV
p78
sV597
p79
VC:/temp/4E10 data/Lot 2 data/group 2/597C_V.CSV
p80
sV774
p81
VC:/temp/4E10 data/Lot 2 data/group 0/774C_V.CSV
p82
sV599
p83
VC:/temp/4E10 data/Lot 2 data/group 2/599C_V.CSV
p84
sV598
p85
VC:/temp/4E10 data/Lot 2 data/group 2/598C_V.CSV
p86
sV701
p87
VC:/temp/4E10 data/Lot 2 data/group 0/701C_V.CSV
p88
sV797
p89
VC:/temp/4E10 data/Lot 2 data/group 0/797C_V.CSV
p90
sV795
p91
VC:/temp/4E10 data/Lot 2 data/group 0/795C_V.CSV
p92
sV838
p93
VC:/temp/4E10 data/Lot 2 data/group 0/838C_V.CSV
p94
sV798
p95
VC:/temp/4E10 data/Lot 2 data/group 0/798C_V.CSV
p96
sV524
p97
VC:/temp/4E10 data/Lot 2 data/group 0/524C_V.CSV
p98
sV525
p99
VC:/temp/4E10 data/Lot 2 data/group 4/525C_V.CSV
p100
sV526
p101
VC:/temp/4E10 data/Lot 2 data/group 4/526C_V.CSV
p102
sV527
p103
VC:/temp/4E10 data/Lot 2 data/group 4/527C_V.CSV
p104
sV520
p105
VC:/temp/4E10 data/Lot 2 data/group 4/520C_V.CSV
p106
sV521
p107
VC:/temp/4E10 data/Lot 2 data/group 4/521C_V.CSV
p108
sV522
p109
VC:/temp/4E10 data/Lot 2 data/group 4/522C_V.CSV
p110
sV523
p111
VC:/temp/4E10 data/Lot 2 data/group 4/523C_V.CSV
p112
sV533
p113
VC:/temp/4E10 data/Lot 2 data/group 4/533C_V.CSV
p114
sV528
p115
VC:/temp/4E10 data/Lot 2 data/group 0/528C_V.CSV
p116
sV529
p117
VC:/temp/4E10 data/Lot 2 data/group 4/529C_V.CSV
p118
sV607
p119
VC:/temp/4E10 data/Lot 2 data/group 2/607C_V.CSV
p120
sV586
p121
VC:/temp/4E10 data/Lot 2 data/group 2/586C_V.CSV
p122
sV587
p123
VC:/temp/4E10 data/Lot 2 data/group 2/587C_V.CSV
p124
sV584
p125
VC:/temp/4E10 data/Lot 2 data/group 3/584C_V.CSV
p126
sV585
p127
VC:/temp/4E10 data/Lot 2 data/group 3/585C_V.CSV
p128
sV582
p129
VC:/temp/4E10 data/Lot 2 data/group 3/582C_V.CSV
p130
sV581
p131
VC:/temp/4E10 data/Lot 2 data/group 3/581C_V.CSV
p132
sV588
p133
VC:/temp/4E10 data/Lot 2 data/group 2/588C_V.CSV
p134
sV589
p135
VC:/temp/4E10 data/Lot 2 data/group 2/589C_V.CSV
p136
sV102
p137
VC:/temp/4E10 data/Lot 2 data/lanl/102C_V.CSV
p138
sV103
p139
VC:/temp/4E10 data/Lot 2 data/lanl/103C_V.CSV
p140
sV100
p141
VC:/temp/4E10 data/Lot 2 data/lanl/100C_V.CSV
p142
sV539
p143
VC:/temp/4E10 data/Lot 2 data/group 5/539_1C_V.CSV
p144
sV104
p145
VC:/temp/4E10 data/Lot 2 data/lanl/104C_V.CSV
p146
sV105
p147
VC:/temp/4E10 data/Lot 2 data/lanl/105C_V.CSV
p148
sV902
p149
VC:/temp/4E10 data/Lot 2 data/group 0/902C_V.CSV
p150
sV846
p151
VC:/temp/4E10 data/Lot 2 data/group 0/846C_V.CSV
p152
sV845
p153
VC:/temp/4E10 data/Lot 2 data/group 0/845C_V.CSV
p154
sV843
p155
VC:/temp/4E10 data/Lot 2 data/group 0/843C_V.CSV
p156
sV783
p157
VC:/temp/4E10 data/Lot 2 data/group 0/783C_V.CSV
p158
sV641
p159
VC:/temp/4E10 data/Lot 2 data/group 1/641C_V.CSV
p160
sV640
p161
VC:/temp/4E10 data/Lot 2 data/group 1/640C_V.CSV
p162
sV643
p163
VC:/temp/4E10 data/Lot 2 data/group 0/643C_V.CSV
p164
sV642
p165
VC:/temp/4E10 data/Lot 2 data/group 1/642C_V.CSV
p166
sV645
p167
VC:/temp/4E10 data/Lot 2 data/group 0/645C_V.CSV
p168
sV644
p169
VC:/temp/4E10 data/Lot 2 data/group 0/644C_V.CSV
p170
sV647
p171
VC:/temp/4E10 data/Lot 2 data/group 1/647C_V.CSV
p172
sV646
p173
VC:/temp/4E10 data/Lot 2 data/group 0/646C_V.CSV
p174
sV649
p175
VC:/temp/4E10 data/Lot 2 data/group 0/649C_V.CSV
p176
sV648
p177
VC:/temp/4E10 data/Lot 2 data/group 0/648C_V.CSV
p178
sV513
p179
VC:/temp/4E10 data/Lot 2 data/group 4/513C_V.CSV
p180
sV512
p181
VC:/temp/4E10 data/Lot 2 data/group 0/512C_V.CSV
p182
sV515
p183
VC:/temp/4E10 data/Lot 2 data/group 4/515C_V.CSV
p184
sV517
p185
VC:/temp/4E10 data/Lot 2 data/group 4/517C_V.CSV
p186
sV516
p187
VC:/temp/4E10 data/Lot 2 data/group 4/516C_V.CSV
p188
sV622
p189
VC:/temp/4E10 data/Lot 2 data/group 3/622C_V.CSV
p190
sV621
p191
VC:/temp/4E10 data/Lot 2 data/group 3/621C_V.CSV
p192
sV627
p193
VC:/temp/4E10 data/Lot 2 data/group 3/627C_V.CSV
p194
sV625
p195
VC:/temp/4E10 data/Lot 2 data/group 3/625C_V.CSV
p196
sV624
p197
VC:/temp/4E10 data/Lot 2 data/group 3/624C_V.CSV
p198
sV573
p199
VC:/temp/4E10 data/Lot 2 data/group 5/573_4C_V.CSV
p200
sV629
p201
VC:/temp/4E10 data/Lot 2 data/group 3/629C_V.CSV
p202
sV628
p203
VC:/temp/4E10 data/Lot 2 data/group 3/628C_V.CSV
p204
sV577
p205
VC:/temp/4E10 data/Lot 2 data/group 0/577C_V.CSV
p206
sV576
p207
VC:/temp/4E10 data/Lot 2 data/group 0/576C_V.CSV
p208
sV575
p209
VC:/temp/4E10 data/Lot 2 data/group 0/575C_V.CSV
p210
sV559
p211
VC:/temp/4E10 data/Lot 2 data/group 5/559_3C_V.CSV
p212
sV154
p213
VC:/temp/4E10 data/Lot 2 data/lanl/154C_V.CSV
p214
sV101
p215
VC:/temp/4E10 data/Lot 2 data/lanl/101C_V.CSV
p216
sV850
p217
VC:/temp/4E10 data/Lot 2 data/group 0/850C_V.CSV
p218
sV508
p219
VC:/temp/4E10 data/Lot 2 data/group 4/508C_V.CSV
p220
sV656
p221
VC:/temp/4E10 data/Lot 2 data/group 5/656_5C_V.CSV
p222
sV657
p223
VC:/temp/4E10 data/Lot 2 data/group 5/657_5C_V.CSV
p224
sV655
p225
VC:/temp/4E10 data/Lot 2 data/group 5/655_4C_V.CSV
p226
sV652
p227
VC:/temp/4E10 data/Lot 2 data/group 0/652C_V.CSV
p228
sV653
p229
VC:/temp/4E10 data/Lot 2 data/group 1/653C_V.CSV
p230
sV650
p231
VC:/temp/4E10 data/Lot 2 data/group 1/650C_V.CSV
p232
sV651
p233
VC:/temp/4E10 data/Lot 2 data/group 1/651C_V.CSV
p234
sV506
p235
VC:/temp/4E10 data/Lot 2 data/group 4/506C_V.CSV
p236
sV738
p237
VC:/temp/4E10 data/Lot 2 data/group 0/738C_V.CSV
p238
sV504
p239
VC:/temp/4E10 data/Lot 2 data/group 4/504C_V.CSV
p240
sV505
p241
VC:/temp/4E10 data/Lot 2 data/group 4/505C_V.CSV
p242
sV502
p243
VC:/temp/4E10 data/Lot 2 data/group 4/502C_V.CSV
p244
sV503
p245
VC:/temp/4E10 data/Lot 2 data/group 4/503C_V.CSV
p246
sV658
p247
VC:/temp/4E10 data/Lot 2 data/group 5/658_5C_V.CSV
p248
sV501
p249
VC:/temp/4E10 data/Lot 2 data/group 4/501C_V.CSV
p250
sV753
p251
VC:/temp/4E10 data/Lot 2 data/group 0/753C_V.CSV
p252
sV631
p253
VC:/temp/4E10 data/Lot 2 data/group 3/631C_V.CSV
p254
sV632
p255
VC:/temp/4E10 data/Lot 2 data/group 3/632C_V.CSV
p256
sV750
p257
VC:/temp/4E10 data/Lot 2 data/group 0/750C_V.CSV
p258
sV757
p259
VC:/temp/4E10 data/Lot 2 data/group 0/757C_V.CSV
p260
sV635
p261
VC:/temp/4E10 data/Lot 2 data/group 3/635C_V.CSV
p262
sV636
p263
VC:/temp/4E10 data/Lot 2 data/group 0/636C_V.CSV
p264
sV754
p265
VC:/temp/4E10 data/Lot 2 data/group 0/754C_V.CSV
p266
sV638
p267
VC:/temp/4E10 data/Lot 2 data/group 1/638C_V.CSV
p268
sV639
p269
VC:/temp/4E10 data/Lot 2 data/group 1/639C_V.CSV
p270
sV562
p271
VC:/temp/4E10 data/Lot 2 data/group 5/562_3C_V.CSV
p272
sV563
p273
VC:/temp/4E10 data/Lot 2 data/group 0/563C_V.CSV
p274
sV564
p275
VC:/temp/4E10 data/Lot 2 data/group 5/564_3C_V.CSV
p276
sV565
p277
VC:/temp/4E10 data/Lot 2 data/group 0/565C_V.CSV
p278
sV566
p279
VC:/temp/4E10 data/Lot 2 data/group 0/566C_V.CSV
p280
sV550
p281
VC:/temp/4E10 data/Lot 2 data/group 5/550_2C_V.CSV
p282
sV507
p283
VC:/temp/4E10 data/Lot 2 data/group 4/507C_V.CSV
p284
sV812
p285
VC:/temp/4E10 data/Lot 2 data/group 0/812C_V.CSV
p286
sV724
p287
VC:/temp/4E10 data/Lot 2 data/group 0/724C_V.CSV
p288
sV725
p289
VC:/temp/4E10 data/Lot 2 data/group 0/725C_V.CSV
p290
sV723
p291
VC:/temp/4E10 data/Lot 2 data/group 0/723C_V.CSV
p292
sV551
p293
VC:/temp/4E10 data/Lot 2 data/group 5/551_2C_V.CSV
p294
sV659
p295
VC:/temp/4E10 data/Lot 2 data/group 5/659_5C_V.CSV
p296
sV153
p297
VC:/temp/4E10 data/Lot 2 data/lanl/153C_V.CSV
p298
sV151
p299
VC:/temp/4E10 data/Lot 2 data/lanl/151C_V.CSV
p300
sV604
p301
VC:/temp/4E10 data/Lot 2 data/group 2/604C_V.CSV
p302
sV742
p303
VC:/temp/4E10 data/Lot 2 data/group 0/742C_V.CSV
p304
sV152
p305
VC:/temp/4E10 data/Lot 2 data/lanl/152C_V.CSV
p306
sV601
p307
VC:/temp/4E10 data/Lot 2 data/group 2/601C_V.CSV
p308
sV558
p309
VC:/temp/4E10 data/Lot 2 data/group 5/558_3C_V.CSV
p310
sV603
p311
VC:/temp/4E10 data/Lot 2 data/group 2/603C_V.CSV
p312
sV602
p313
VC:/temp/4E10 data/Lot 2 data/group 2/602C_V.CSV
p314
sV555
p315
VC:/temp/4E10 data/Lot 2 data/group 5/555_2C_V.CSV
p316
sV554
p317
VC:/temp/4E10 data/Lot 2 data/group 0/554C_V.CSV
p318
sV557
p319
VC:/temp/4E10 data/Lot 2 data/group 5/557_2C_V.CSV
p320
sV556
p321
VC:/temp/4E10 data/Lot 2 data/group 5/556_2C_V.CSV
p322
sV609
p323
VC:/temp/4E10 data/Lot 2 data/group 2/609C_V.CSV
p324
sV608
p325
VC:/temp/4E10 data/Lot 2 data/group 2/608C_V.CSV
p326
sV553
p327
VC:/temp/4E10 data/Lot 2 data/group 5/553_2C_V.CSV
p328
sV552
p329
VC:/temp/4E10 data/Lot 2 data/group 0/552C_V.CSV
p330
sV633
p331
VC:/temp/4E10 data/Lot 2 data/group 0/633C_V.CSV
p332
sV634
p333
VC:/temp/4E10 data/Lot 2 data/group 3/634C_V.CSV
p334
sV518
p335
VC:/temp/4E10 data/Lot 2 data/group 4/518C_V.CSV
p336
sV637
p337
VC:/temp/4E10 data/Lot 2 data/group 3/637C_V.CSV
p338
sV560
p339
VC:/temp/4E10 data/Lot 2 data/group 5/560_3C_V.CSV
p340
sV561
p341
VC:/temp/4E10 data/Lot 2 data/group 5/561_3C_V.CSV
p342
sV155
p343
VC:/temp/4E10 data/Lot 2 data/lanl/155C_V.CSV
p344
sV832
p345
VC:/temp/4E10 data/Lot 2 data/group 0/832C_V.CSV
p346
sV618
p347
VC:/temp/4E10 data/Lot 2 data/group 3/618C_V.CSV
p348
sV776
p349
VC:/temp/4E10 data/Lot 2 data/group 0/776C_V.CSV
p350
sV612
p351
VC:/temp/4E10 data/Lot 2 data/group 2/612C_V.CSV
p352
sV613
p353
VC:/temp/4E10 data/Lot 2 data/group 3/613C_V.CSV
p354
sV611
p355
VC:/temp/4E10 data/Lot 2 data/group 2/611C_V.CSV
p356
sV617
p357
VC:/temp/4E10 data/Lot 2 data/group 3/617C_V.CSV
p358
sV615
p359
VC:/temp/4E10 data/Lot 2 data/group 3/615C_V.CSV
p360
sV511
p361
VC:/temp/4E10 data/Lot 2 data/group 4/511C_V.CSV
p362
sV510
p363
VC:/temp/4E10 data/Lot 2 data/group 0/510C_V.CSV
p364
sV567
p365
VC:/temp/4E10 data/Lot 2 data/group 5/567_4C_V.CSV
p366
sV509
p367
VC:/temp/4E10 data/Lot 2 data/group 4/509C_V.CSV
p368
sV809
p369
VC:/temp/4E10 data/Lot 2 data/group 0/809C_V.CSV
p370
sV688
p371
VC:/temp/4E10 data/Lot 2 data/group 0/688C_V.CSV
p372
sV568
p373
VC:/temp/4E10 data/Lot 2 data/group 5/568_4C_V.CSV
p374
sV801
p375
VC:/temp/4E10 data/Lot 2 data/group 0/801C_V.CSV
p376
sV807
p377
VC:/temp/4E10 data/Lot 2 data/group 0/807C_V.CSV
p378
sV680
p379
VC:/temp/4E10 data/Lot 2 data/group 0/680C_V.CSV
p380
sV804
p381
VC:/temp/4E10 data/Lot 2 data/group 0/804C_V.CSV
p382
s.