(lp0
(dp1
S'start_time'
p2
ctime
struct_time
p3
((I2016
I5
I14
I9
I18
I47
I5
I135
I1
tp4
(dp5
tp6
Rp7
sS'locked'
p8
S'y'
p9
sS'dir_org'
p10
S'79TZPH'
p11
sS'dir_wm'
p12
S'5EZKS9'
p13
sS'ID'
p14
S'2UY0NA'
p15
sa(dp16
g2
g3
((I2016
I5
I14
I9
I19
I9
I5
I135
I1
tp17
(dp18
tp19
Rp20
sg8
g9
sg10
S'QKZO26'
p21
sg12
S'T3A8IC'
p22
sg14
S'KSH7IQ'
p23
sa.