(lp0
(lp1
I0
aI0
aI1650
aa(lp2
I1
aI762
aI1780
aa(lp3
I26
aI1335
aI1650
aa(lp4
I525
aI1387
aI1650
aa(lp5
I602
aI1221
aI1650
aa(lp6
I551
aI977
aI1650
aa(lp7
I573
aI723
aI1650
aa(lp8
I522
aI421
aI1650
aa(lp9
I645
aI333
aI1650
aa(lp10
I612
aI343
aI1650
aa(lp11
I1284
aI-271
aI1650
aa(lp12
I915
aI-270
aI1650
aa(lp13
I410
aI-200
aI1650
aa(lp14
I228
aI-100
aI1650
aa(lp15
I2
aI-165
aI1650
aa(lp16
I-12
aI142
aI1650
aa(lp17
I-12
aI147
aI1650
aa(lp18
I0
aI0
aI1650
aa(lp19
I0
aI0
aI1650
aa(lp20
I0
aI0
aI1650
aa.