(lp0
(lp1
I0
aI0
aI1650
aa(lp2
I1
aI762
aI1750
aa(lp3
I26
aI1335
aI1650
aa(lp4
I525
aI1387
aI1650
aa(lp5
I602
aI1221
aI1650
aa(lp6
I551
aI977
aI1650
aa(lp7
I573
aI723
aI1650
aa(lp8
I522
aI500
aI1650
aa(lp9
I620
aI420
a(lp10
I1520
aaa(lp11
I932
aI390
aI1650
aa(lp12
I1280
aI420
aI1650
aa(lp13
I1284
aI-230
aI1650
aa(lp14
I1070
aI-250
aI1540
aa(lp15
I915
aI-230
aI1650
aa(lp16
I410
aI-170
aI1650
aa(lp17
I228
aI-100
aI1650
aa(lp18
I2
aI-165
aI1650
aa(lp19
I-12
aI142
aI1650
aa(lp20
I-12
aI147
aI1650
aa(lp21
I0
aI0
aI1650
aa(lp22
I0
aI0
aI1650
aa.